ARM GAS  C:\Users\Loicc\AppData\Local\Temp\ccUvvZad.s 			page 1


   1              		.cpu cortex-m4
   2              		.eabi_attribute 27, 1
   3              		.eabi_attribute 28, 1
   4              		.eabi_attribute 20, 1
   5              		.eabi_attribute 21, 1
   6              		.eabi_attribute 23, 3
   7              		.eabi_attribute 24, 1
   8              		.eabi_attribute 25, 1
   9              		.eabi_attribute 26, 1
  10              		.eabi_attribute 30, 2
  11              		.eabi_attribute 34, 1
  12              		.eabi_attribute 18, 4
  13              		.file	"audio_processing.c"
  14              		.text
  15              	.Ltext0:
  16              		.cfi_sections	.debug_frame
  17              		.global	__aeabi_f2d
  18              		.global	__aeabi_dmul
  19              		.global	__aeabi_dadd
  20              		.global	__aeabi_d2f
  21              		.section	.text.sound_remote,"ax",%progbits
  22              		.align	1
  23              		.p2align 4,,15
  24              		.global	sound_remote
  25              		.syntax unified
  26              		.thumb
  27              		.thumb_func
  28              		.fpu fpv4-sp-d16
  29              		.type	sound_remote, %function
  30              	sound_remote:
  31              	.LFB290:
  32              		.file 1 "audio_processing.c"
  33              		.loc 1 45 0
  34              		.cfi_startproc
  35              		@ args = 0, pretend = 0, frame = 56
  36              		@ frame_needed = 0, uses_anonymous_args = 0
  37              	.LVL0:
  38 0000 2DE9F04F 		push	{r4, r5, r6, r7, r8, r9, r10, fp, lr}
  39              		.cfi_def_cfa_offset 36
  40              		.cfi_offset 4, -36
  41              		.cfi_offset 5, -32
  42              		.cfi_offset 6, -28
  43              		.cfi_offset 7, -24
  44              		.cfi_offset 8, -20
  45              		.cfi_offset 9, -16
  46              		.cfi_offset 10, -12
  47              		.cfi_offset 11, -8
  48              		.cfi_offset 14, -4
  49 0004 2DED048B 		vpush.64	{d8, d9}
  50              		.cfi_def_cfa_offset 52
  51              		.cfi_offset 80, -52
  52              		.cfi_offset 81, -48
  53              		.cfi_offset 82, -44
  54              		.cfi_offset 83, -40
  55 0008 DFF8F4B2 		ldr	fp, .L59+52
  56 000c 8FB0     		sub	sp, sp, #60
  57              		.cfi_def_cfa_offset 112
ARM GAS  C:\Users\Loicc\AppData\Local\Temp\ccUvvZad.s 			page 2


  58              		.loc 1 45 0
  59 000e DBF80030 		ldr	r3, [fp]
  60 0012 0D93     		str	r3, [sp, #52]
  61              	.LVL1:
  62 0014 0390     		str	r0, [sp, #12]
  63              		.loc 1 50 0
  64 0016 4FF6FF73 		movw	r3, #65535
  65              		.loc 1 52 0
  66 001a 05A8     		add	r0, sp, #20
  67              	.LVL2:
  68              		.loc 1 50 0
  69 001c ADF81230 		strh	r3, [sp, #18]	@ movhi
  70              		.loc 1 52 0
  71 0020 FFF7FEFF 		bl	obstacle_detection
  72              	.LVL3:
  73              		.loc 1 54 0
  74 0024 9FEDA97A 		vldr.32	s14, .L59
  75 0028 DDED067A 		vldr.32	s15, [sp, #24]
  76 002c F4EEC77A 		vcmpe.f32	s15, s14
  77 0030 F1EE10FA 		vmrs	APSR_nzcv, FPSCR
  78 0034 9DED077A 		vldr.32	s14, [sp, #28]
  79 0038 0DDD     		ble	.L5
  80              		.loc 1 54 0 is_stmt 0 discriminator 1
  81 003a F4EEC77A 		vcmpe.f32	s15, s14
  82 003e F1EE10FA 		vmrs	APSR_nzcv, FPSCR
  83 0042 00F31C81 		bgt	.L53
  84              		.loc 1 54 0 discriminator 2
  85 0046 DDED056A 		vldr.32	s13, [sp, #20]
  86 004a F4EEE67A 		vcmpe.f32	s15, s13
  87 004e F1EE10FA 		vmrs	APSR_nzcv, FPSCR
  88 0052 00F11481 		bmi	.L53
  89              	.L5:
  90              		.loc 1 63 0 is_stmt 1
  91 0056 DFED9D6A 		vldr.32	s13, .L59
  92 005a B4EEE67A 		vcmpe.f32	s14, s13
  93 005e F1EE10FA 		vmrs	APSR_nzcv, FPSCR
  94 0062 19DD     		ble	.L8
  95              		.loc 1 63 0 is_stmt 0 discriminator 1
  96 0064 F4EEC77A 		vcmpe.f32	s15, s14
  97 0068 F1EE10FA 		vmrs	APSR_nzcv, FPSCR
  98 006c 14D5     		bpl	.L8
  99              		.loc 1 64 0 is_stmt 1
 100 006e 9FED987A 		vldr.32	s14, .L59+4
 101 0072 F4EEC77A 		vcmpe.f32	s15, s14
 102 0076 F1EE10FA 		vmrs	APSR_nzcv, FPSCR
 103 007a 00F30081 		bgt	.L53
 104              		.loc 1 72 0
 105 007e 4FF49670 		mov	r0, #300
 106              	.LVL4:
 107              	.L29:
 108              		.loc 1 138 0
 109 0082 FFF7FEFF 		bl	left_motor_set_speed
 110              	.LVL5:
 111              		.loc 1 139 0
 112 0086 4FF49670 		mov	r0, #300
 113 008a FFF7FEFF 		bl	right_motor_set_speed
 114              	.LVL6:
ARM GAS  C:\Users\Loicc\AppData\Local\Temp\ccUvvZad.s 			page 3


 115              		.loc 1 140 0
 116 008e 914B     		ldr	r3, .L59+8
 117 0090 4FF40014 		mov	r4, #2097152
 118              	.L52:
 119              		.loc 1 150 0
 120 0094 4020     		movs	r0, #64
 121 0096 21E0     		b	.L51
 122              	.LVL7:
 123              	.L8:
 124              		.loc 1 80 0
 125 0098 DDED0B7A 		vldr.32	s15, [sp, #44]
 126 009c DFED8B6A 		vldr.32	s13, .L59
 127 00a0 9DED0A7A 		vldr.32	s14, [sp, #40]
 128 00a4 F4EEE67A 		vcmpe.f32	s15, s13
 129 00a8 F1EE10FA 		vmrs	APSR_nzcv, FPSCR
 130 00ac 1FDD     		ble	.L13
 131              		.loc 1 80 0 is_stmt 0 discriminator 1
 132 00ae F4EEC77A 		vcmpe.f32	s15, s14
 133 00b2 F1EE10FA 		vmrs	APSR_nzcv, FPSCR
 134 00b6 06DC     		bgt	.L15
 135              		.loc 1 80 0 discriminator 2
 136 00b8 DDED0C6A 		vldr.32	s13, [sp, #48]
 137 00bc F4EEE67A 		vcmpe.f32	s15, s13
 138 00c0 F1EE10FA 		vmrs	APSR_nzcv, FPSCR
 139 00c4 13D5     		bpl	.L13
 140              	.L15:
 141              		.loc 1 82 0 is_stmt 1
 142 00c6 4FF49670 		mov	r0, #300
 143              	.LVL8:
 144              	.L55:
 145              		.loc 1 130 0
 146 00ca FFF7FEFF 		bl	left_motor_set_speed
 147              	.LVL9:
 148              		.loc 1 131 0
 149 00ce 8248     		ldr	r0, .L59+12
 150 00d0 FFF7FEFF 		bl	right_motor_set_speed
 151              	.LVL10:
 152              		.loc 1 132 0
 153 00d4 7F4B     		ldr	r3, .L59+8
 154 00d6 2024     		movs	r4, #32
 155              		.loc 1 133 0
 156 00d8 4FF48000 		mov	r0, #4194304
 157              	.L51:
 158              		.loc 1 151 0
 159 00dc 4FF48061 		mov	r1, #1024
 160              		.loc 1 152 0
 161 00e0 4FF40062 		mov	r2, #2048
 162              		.loc 1 149 0
 163 00e4 9C61     		str	r4, [r3, #24]
 164              	.LVL11:
 165              		.loc 1 150 0
 166 00e6 9861     		str	r0, [r3, #24]
 167              		.loc 1 151 0
 168 00e8 9961     		str	r1, [r3, #24]
 169              		.loc 1 152 0
 170 00ea 9A61     		str	r2, [r3, #24]
 171              		.loc 1 155 0
ARM GAS  C:\Users\Loicc\AppData\Local\Temp\ccUvvZad.s 			page 4


 172 00ec D9E0     		b	.L1
 173              	.LVL12:
 174              	.L13:
 175              		.loc 1 89 0
 176 00ee DFED776A 		vldr.32	s13, .L59
 177 00f2 B4EEE67A 		vcmpe.f32	s14, s13
 178 00f6 F1EE10FA 		vmrs	APSR_nzcv, FPSCR
 179 00fa 11DD     		ble	.L17
 180              		.loc 1 89 0 is_stmt 0 discriminator 1
 181 00fc F4EEC77A 		vcmpe.f32	s15, s14
 182 0100 F1EE10FA 		vmrs	APSR_nzcv, FPSCR
 183 0104 0CD5     		bpl	.L17
 184              		.loc 1 90 0 is_stmt 1
 185 0106 9FED727A 		vldr.32	s14, .L59+4
 186 010a F4EEC77A 		vcmpe.f32	s15, s14
 187 010e F1EE10FA 		vmrs	APSR_nzcv, FPSCR
 188              		.loc 1 91 0
 189 0112 4FF49670 		mov	r0, #300
 190              		.loc 1 90 0
 191 0116 B4DD     		ble	.L29
 192              		.loc 1 91 0
 193 0118 FFF7FEFF 		bl	left_motor_set_speed
 194              	.LVL13:
 195              		.loc 1 92 0
 196 011c 6E48     		ldr	r0, .L59+12
 197 011e B3E0     		b	.L54
 198              	.L17:
 199              		.loc 1 45 0
 200 0120 9FED6E8A 		vldr.32	s16, .L59+16
 201 0124 6E4E     		ldr	r6, .L59+20
 202 0126 6F4D     		ldr	r5, .L59+24
 203              	.LBB2:
 204              		.loc 1 115 0
 205 0128 DFED6F9A 		vldr.32	s19, .L59+28
 206              	.LBE2:
 207              		.loc 1 45 0
 208 012c 18EE107A 		vmov	r7, s16
 209 0130 18EE10AA 		vmov	r10, s16
 210 0134 F0EE488A 		vmov.f32	s17, s16
 211 0138 2224     		movs	r4, #34
 212              	.LBB3:
 213              		.loc 1 112 0
 214 013a B5EE009A 		vmov.f32	s18, #2.5e-1
 215              	.LVL14:
 216              	.L24:
 217              		.loc 1 110 0
 218 013e D6F88800 		ldr	r0, [r6, #136]	@ float
 219 0142 FFF7FEFF 		bl	__aeabi_f2d
 220              	.LVL15:
 221 0146 CDE90001 		strd	r0, [sp]
 222 014a D6F88C00 		ldr	r0, [r6, #140]	@ float
 223 014e FFF7FEFF 		bl	__aeabi_f2d
 224              	.LVL16:
 225 0152 9DED001B 		vldr.64	d1, [sp]
 226 0156 41EC100B 		vmov	d0, r0, r1
 227 015a FFF7FEFF 		bl	atan2
 228              	.LVL17:
ARM GAS  C:\Users\Loicc\AppData\Local\Temp\ccUvvZad.s 			page 5


 229 015e 0022     		movs	r2, #0
 230 0160 51EC100B 		vmov	r0, r1, d0
 231 0164 614B     		ldr	r3, .L59+32
 232 0166 FFF7FEFF 		bl	__aeabi_dmul
 233              	.LVL18:
 234 016a 8046     		mov	r8, r0
 235 016c 3846     		mov	r0, r7	@ float
 236 016e 8946     		mov	r9, r1
 237 0170 FFF7FEFF 		bl	__aeabi_f2d
 238              	.LVL19:
 239 0174 0246     		mov	r2, r0
 240 0176 0B46     		mov	r3, r1
 241 0178 4046     		mov	r0, r8
 242 017a 4946     		mov	r1, r9
 243 017c FFF7FEFF 		bl	__aeabi_dadd
 244              	.LVL20:
 245 0180 FFF7FEFF 		bl	__aeabi_d2f
 246              	.LVL21:
 247 0184 0746     		mov	r7, r0	@ float
 248              	.LVL22:
 249              		.loc 1 111 0
 250 0186 D5F88800 		ldr	r0, [r5, #136]	@ float
 251              	.LVL23:
 252 018a FFF7FEFF 		bl	__aeabi_f2d
 253              	.LVL24:
 254 018e CDE90001 		strd	r0, [sp]
 255 0192 D5F88C00 		ldr	r0, [r5, #140]	@ float
 256 0196 FFF7FEFF 		bl	__aeabi_f2d
 257              	.LVL25:
 258 019a 9DED001B 		vldr.64	d1, [sp]
 259 019e 41EC100B 		vmov	d0, r0, r1
 260 01a2 FFF7FEFF 		bl	atan2
 261              	.LVL26:
 262 01a6 0022     		movs	r2, #0
 263 01a8 51EC100B 		vmov	r0, r1, d0
 264 01ac 4F4B     		ldr	r3, .L59+32
 265 01ae FFF7FEFF 		bl	__aeabi_dmul
 266              	.LVL27:
 267 01b2 8046     		mov	r8, r0
 268 01b4 5046     		mov	r0, r10	@ float
 269 01b6 8946     		mov	r9, r1
 270 01b8 FFF7FEFF 		bl	__aeabi_f2d
 271              	.LVL28:
 272 01bc 0246     		mov	r2, r0
 273 01be 0B46     		mov	r3, r1
 274 01c0 4046     		mov	r0, r8
 275 01c2 4946     		mov	r1, r9
 276 01c4 FFF7FEFF 		bl	__aeabi_dadd
 277              	.LVL29:
 278 01c8 FFF7FEFF 		bl	__aeabi_d2f
 279              	.LVL30:
 280              		.loc 1 112 0
 281 01cc C4F34E02 		ubfx	r2, r4, #1, #15
 282 01d0 4749     		ldr	r1, .L59+36
 283 01d2 9300     		lsls	r3, r2, #2
 284              		.loc 1 111 0
 285 01d4 8246     		mov	r10, r0	@ float
ARM GAS  C:\Users\Loicc\AppData\Local\Temp\ccUvvZad.s 			page 6


 286              	.LVL31:
 287              		.loc 1 112 0
 288 01d6 C818     		adds	r0, r1, r3
 289              	.LVL32:
 290              		.loc 1 113 0
 291 01d8 4649     		ldr	r1, .L59+40
 292              		.loc 1 112 0
 293 01da D0ED006A 		vldr.32	s13, [r0]
 294              		.loc 1 113 0
 295 01de 01EB030C 		add	ip, r1, r3
 296              		.loc 1 115 0
 297 01e2 0399     		ldr	r1, [sp, #12]
 298              		.loc 1 113 0
 299 01e4 9CED007A 		vldr.32	s14, [ip]
 300              		.loc 1 115 0
 301 01e8 0B44     		add	r3, r3, r1
 302 01ea D3ED007A 		vldr.32	s15, [r3]
 303 01ee F4EEE97A 		vcmpe.f32	s15, s19
 304 01f2 F1EE10FA 		vmrs	APSR_nzcv, FPSCR
 305              		.loc 1 116 0
 306 01f6 C8BF     		it	gt
 307 01f8 12B2     		sxthgt	r2, r2
 308 01fa 04F10204 		add	r4, r4, #2
 309              	.LVL33:
 310 01fe C8BF     		it	gt
 311 0200 ADF81220 		strhgt	r2, [sp, #18]	@ movhi
 312              		.loc 1 109 0
 313 0204 2C2C     		cmp	r4, #44
 314              		.loc 1 112 0
 315 0206 E6EE898A 		vfma.f32	s17, s13, s18
 316              	.LVL34:
 317 020a 06F10806 		add	r6, r6, #8
 318 020e 05F10805 		add	r5, r5, #8
 319              		.loc 1 113 0
 320 0212 A7EE098A 		vfma.f32	s16, s14, s18
 321              	.LVL35:
 322              		.loc 1 109 0
 323 0216 92D1     		bne	.L24
 324              	.LBE3:
 325              		.loc 1 120 0
 326 0218 BDF81230 		ldrh	r3, [sp, #18]
 327 021c 1BB2     		sxth	r3, r3
 328 021e 112B     		cmp	r3, #17
 329 0220 49DD     		ble	.L25
 330              		.loc 1 120 0 is_stmt 0 discriminator 1
 331 0222 BDF81230 		ldrh	r3, [sp, #18]
 332 0226 1BB2     		sxth	r3, r3
 333 0228 142B     		cmp	r3, #20
 334 022a 44DC     		bgt	.L25
 335              		.loc 1 121 0 is_stmt 1
 336 022c DFED327A 		vldr.32	s15, .L59+44
 337 0230 78EE277A 		vadd.f32	s15, s16, s15
 338 0234 F4EEE87A 		vcmpe.f32	s15, s17
 339 0238 F1EE10FA 		vmrs	APSR_nzcv, FPSCR
 340 023c 16D4     		bmi	.L57
 341              	.L26:
 342              		.loc 1 129 0
ARM GAS  C:\Users\Loicc\AppData\Local\Temp\ccUvvZad.s 			page 7


 343 023e DFED2F7A 		vldr.32	s15, .L59+48
 344 0242 38EE678A 		vsub.f32	s16, s16, s15
 345              	.LVL36:
 346              		.loc 1 130 0
 347 0246 4FF49670 		mov	r0, #300
 348              		.loc 1 129 0
 349 024a B4EEE88A 		vcmpe.f32	s16, s17
 350 024e F1EE10FA 		vmrs	APSR_nzcv, FPSCR
 351 0252 7FF716AF 		ble	.L29
 352              		.loc 1 129 0 is_stmt 0 discriminator 1
 353 0256 07EE907A 		vmov	s15, r7
 354 025a 07EE10AA 		vmov	s14, r10
 355 025e F4EEC77A 		vcmpe.f32	s15, s14
 356 0262 F1EE10FA 		vmrs	APSR_nzcv, FPSCR
 357 0266 7FF70CAF 		ble	.L29
 358 026a 2EE7     		b	.L55
 359              	.LVL37:
 360              	.L57:
 361              		.loc 1 121 0 is_stmt 1 discriminator 1
 362 026c 07EE907A 		vmov	s15, r7
 363 0270 07EE10AA 		vmov	s14, r10
 364 0274 F4EEC77A 		vcmpe.f32	s15, s14
 365 0278 F1EE10FA 		vmrs	APSR_nzcv, FPSCR
 366 027c DFD5     		bpl	.L26
 367              	.LVL38:
 368              	.L53:
 369              		.loc 1 122 0
 370 027e 1648     		ldr	r0, .L59+12
 371 0280 FFF7FEFF 		bl	left_motor_set_speed
 372              	.LVL39:
 373              		.loc 1 123 0
 374 0284 4FF49670 		mov	r0, #300
 375              	.L54:
 376 0288 FFF7FEFF 		bl	right_motor_set_speed
 377              	.LVL40:
 378              		.loc 1 124 0
 379 028c 114B     		ldr	r3, .L59+8
 380 028e 2024     		movs	r4, #32
 381              		.loc 1 125 0
 382 0290 4020     		movs	r0, #64
 383              		.loc 1 126 0
 384 0292 4FF48061 		mov	r1, #1024
 385              		.loc 1 127 0
 386 0296 4FF00062 		mov	r2, #134217728
 387              		.loc 1 124 0
 388 029a 9C61     		str	r4, [r3, #24]
 389              	.LVL41:
 390              		.loc 1 125 0
 391 029c 9861     		str	r0, [r3, #24]
 392              		.loc 1 126 0
 393 029e 9961     		str	r1, [r3, #24]
 394              		.loc 1 127 0
 395 02a0 9A61     		str	r2, [r3, #24]
 396              	.L1:
 397              		.loc 1 155 0
 398 02a2 0D9A     		ldr	r2, [sp, #52]
 399 02a4 DBF80030 		ldr	r3, [fp]
ARM GAS  C:\Users\Loicc\AppData\Local\Temp\ccUvvZad.s 			page 8


 400 02a8 9A42     		cmp	r2, r3
 401 02aa 0DD1     		bne	.L58
 402 02ac 0FB0     		add	sp, sp, #60
 403              		.cfi_remember_state
 404              		.cfi_def_cfa_offset 52
 405              		@ sp needed
 406 02ae BDEC048B 		vldm	sp!, {d8-d9}
 407              		.cfi_restore 82
 408              		.cfi_restore 83
 409              		.cfi_restore 80
 410              		.cfi_restore 81
 411              		.cfi_def_cfa_offset 36
 412 02b2 BDE8F08F 		pop	{r4, r5, r6, r7, r8, r9, r10, fp, pc}
 413              	.LVL42:
 414              	.L25:
 415              		.cfi_restore_state
 416              		.loc 1 147 0
 417 02b6 0020     		movs	r0, #0
 418 02b8 FFF7FEFF 		bl	left_motor_set_speed
 419              	.LVL43:
 420              		.loc 1 148 0
 421 02bc 0020     		movs	r0, #0
 422 02be FFF7FEFF 		bl	right_motor_set_speed
 423              	.LVL44:
 424              		.loc 1 149 0
 425 02c2 2024     		movs	r4, #32
 426 02c4 034B     		ldr	r3, .L59+8
 427 02c6 E5E6     		b	.L52
 428              	.LVL45:
 429              	.L58:
 430              		.loc 1 155 0
 431 02c8 FFF7FEFF 		bl	__stack_chk_fail
 432              	.LVL46:
 433              	.L60:
 434              		.align	2
 435              	.L59:
 436 02cc 00004842 		.word	1112014848
 437 02d0 00007A43 		.word	1132068864
 438 02d4 000C0240 		.word	1073875968
 439 02d8 D4FEFFFF 		.word	-300
 440 02dc 00000000 		.word	0
 441 02e0 00000000 		.word	micRight_cmplx_input
 442 02e4 00000000 		.word	micLeft_cmplx_input
 443 02e8 00409C46 		.word	1184645120
 444 02ec 0000D03F 		.word	1070596096
 445 02f0 00000000 		.word	micLeft_output
 446 02f4 00000000 		.word	micRight_output
 447 02f8 0000FA43 		.word	1140457472
 448 02fc 00800945 		.word	1158250496
 449 0300 00000000 		.word	__stack_chk_guard
 450              		.cfi_endproc
 451              	.LFE290:
 452              		.size	sound_remote, .-sound_remote
 453              		.section	.text.processAudioData,"ax",%progbits
 454              		.align	1
 455              		.p2align 4,,15
 456              		.global	processAudioData
ARM GAS  C:\Users\Loicc\AppData\Local\Temp\ccUvvZad.s 			page 9


 457              		.syntax unified
 458              		.thumb
 459              		.thumb_func
 460              		.fpu fpv4-sp-d16
 461              		.type	processAudioData, %function
 462              	processAudioData:
 463              	.LFB291:
 464              		.loc 1 166 0
 465              		.cfi_startproc
 466              		@ args = 0, pretend = 0, frame = 8
 467              		@ frame_needed = 0, uses_anonymous_args = 0
 468              	.LVL47:
 469 0000 2DE9F04F 		push	{r4, r5, r6, r7, r8, r9, r10, fp, lr}
 470              		.cfi_def_cfa_offset 36
 471              		.cfi_offset 4, -36
 472              		.cfi_offset 5, -32
 473              		.cfi_offset 6, -28
 474              		.cfi_offset 7, -24
 475              		.cfi_offset 8, -20
 476              		.cfi_offset 9, -16
 477              		.cfi_offset 10, -12
 478              		.cfi_offset 11, -8
 479              		.cfi_offset 14, -4
 480 0004 504E     		ldr	r6, .L73
 481 0006 514F     		ldr	r7, .L73+4
 482 0008 3368     		ldr	r3, [r6]
 483 000a 3A88     		ldrh	r2, [r7]
 484 000c 83B0     		sub	sp, sp, #12
 485              		.cfi_def_cfa_offset 48
 486              		.loc 1 166 0
 487 000e 0193     		str	r3, [sp, #4]
 488              	.LVL48:
 489              	.LBB4:
 490              		.loc 1 179 0
 491 0010 0029     		cmp	r1, #0
 492 0012 00F08B80 		beq	.L62
 493 0016 DFF83C91 		ldr	r9, .L73+12
 494 001a DFF83C81 		ldr	r8, .L73+16
 495 001e DFF840E1 		ldr	lr, .L73+24
 496 0022 DFF838C1 		ldr	ip, .L73+20
 497              		.loc 1 188 0
 498 0026 DFED4A7A 		vldr.32	s15, .L73+8
 499              		.loc 1 179 0
 500 002a 0025     		movs	r5, #0
 501 002c 04E0     		b	.L65
 502              	.LVL49:
 503              	.L63:
 504              		.loc 1 179 0 is_stmt 0 discriminator 2
 505 002e 0435     		adds	r5, r5, #4
 506              	.LVL50:
 507 0030 ADB2     		uxth	r5, r5
 508              	.LVL51:
 509 0032 A942     		cmp	r1, r5
 510 0034 40F28480 		bls	.L72
 511              	.LVL52:
 512              	.L65:
 513              		.loc 1 181 0 is_stmt 1
ARM GAS  C:\Users\Loicc\AppData\Local\Temp\ccUvvZad.s 			page 10


 514 0038 30F91530 		ldrsh	r3, [r0, r5, lsl #1]
 515 003c 07EE103A 		vmov	s14, r3	@ int
 516 0040 9400     		lsls	r4, r2, #2
 517 0042 B8EEC77A 		vcvt.f32.s32	s14, s14
 518 0046 09EB040A 		add	r10, r9, r4
 519              		.loc 1 182 0
 520 004a 00EB4503 		add	r3, r0, r5, lsl #1
 521              		.loc 1 181 0
 522 004e 8AED007A 		vstr.32	s14, [r10]
 523              		.loc 1 182 0
 524 0052 B3F902A0 		ldrsh	r10, [r3, #2]
 525 0056 07EE10AA 		vmov	s14, r10	@ int
 526 005a B8EEC77A 		vcvt.f32.s32	s14, s14
 527 005e 08EB040A 		add	r10, r8, r4
 528 0062 8AED007A 		vstr.32	s14, [r10]
 529              		.loc 1 183 0
 530 0066 B3F904A0 		ldrsh	r10, [r3, #4]
 531 006a 07EE10AA 		vmov	s14, r10	@ int
 532 006e B8EEC77A 		vcvt.f32.s32	s14, s14
 533 0072 0EEB040A 		add	r10, lr, r4
 534 0076 8AED007A 		vstr.32	s14, [r10]
 535              		.loc 1 184 0
 536 007a B3F90630 		ldrsh	r3, [r3, #6]
 537 007e 07EE103A 		vmov	s14, r3	@ int
 538              		.loc 1 188 0
 539 0082 531C     		adds	r3, r2, #1
 540 0084 9BB2     		uxth	r3, r3
 541              		.loc 1 184 0
 542 0086 B8EEC77A 		vcvt.f32.s32	s14, s14
 543              		.loc 1 193 0
 544 008a 0232     		adds	r2, r2, #2
 545              		.loc 1 188 0
 546 008c 9B00     		lsls	r3, r3, #2
 547              		.loc 1 184 0
 548 008e 6444     		add	r4, r4, ip
 549              		.loc 1 193 0
 550 0090 92B2     		uxth	r2, r2
 551              		.loc 1 184 0
 552 0092 84ED007A 		vstr.32	s14, [r4]
 553              		.loc 1 188 0
 554 0096 09EB030B 		add	fp, r9, r3
 555              		.loc 1 189 0
 556 009a 08EB030A 		add	r10, r8, r3
 557              		.loc 1 190 0
 558 009e 0EEB0304 		add	r4, lr, r3
 559              		.loc 1 196 0
 560 00a2 B2F5006F 		cmp	r2, #2048
 561              		.loc 1 191 0
 562 00a6 6344     		add	r3, r3, ip
 563              		.loc 1 188 0
 564 00a8 CBED007A 		vstr.32	s15, [fp]
 565              		.loc 1 189 0
 566 00ac CAED007A 		vstr.32	s15, [r10]
 567              		.loc 1 190 0
 568 00b0 C4ED007A 		vstr.32	s15, [r4]
 569              		.loc 1 191 0
 570 00b4 C3ED007A 		vstr.32	s15, [r3]
ARM GAS  C:\Users\Loicc\AppData\Local\Temp\ccUvvZad.s 			page 11


 571              		.loc 1 196 0
 572 00b8 B9D3     		bcc	.L63
 573 00ba 3A80     		strh	r2, [r7]	@ movhi
 574              	.LVL53:
 575              	.L64:
 576              	.LBE4:
 577              		.loc 1 208 0
 578 00bc 2549     		ldr	r1, .L73+12
 579              	.LVL54:
 580 00be 4FF48060 		mov	r0, #1024
 581              	.LVL55:
 582 00c2 FFF7FEFF 		bl	doFFT_optimized
 583              	.LVL56:
 584              		.loc 1 209 0
 585 00c6 2449     		ldr	r1, .L73+16
 586 00c8 4FF48060 		mov	r0, #1024
 587 00cc FFF7FEFF 		bl	doFFT_optimized
 588              	.LVL57:
 589              		.loc 1 210 0
 590 00d0 2249     		ldr	r1, .L73+20
 591 00d2 4FF48060 		mov	r0, #1024
 592 00d6 FFF7FEFF 		bl	doFFT_optimized
 593              	.LVL58:
 594              		.loc 1 211 0
 595 00da 2149     		ldr	r1, .L73+24
 596 00dc 4FF48060 		mov	r0, #1024
 597 00e0 FFF7FEFF 		bl	doFFT_optimized
 598              	.LVL59:
 599              		.loc 1 222 0
 600 00e4 4FF48062 		mov	r2, #1024
 601 00e8 1E49     		ldr	r1, .L73+28
 602 00ea 1A48     		ldr	r0, .L73+12
 603 00ec FFF7FEFF 		bl	arm_cmplx_mag_f32
 604              	.LVL60:
 605              		.loc 1 223 0
 606 00f0 4FF48062 		mov	r2, #1024
 607 00f4 1C49     		ldr	r1, .L73+32
 608 00f6 1848     		ldr	r0, .L73+16
 609 00f8 FFF7FEFF 		bl	arm_cmplx_mag_f32
 610              	.LVL61:
 611              		.loc 1 224 0
 612 00fc 4FF48062 		mov	r2, #1024
 613 0100 1A49     		ldr	r1, .L73+36
 614 0102 1648     		ldr	r0, .L73+20
 615 0104 FFF7FEFF 		bl	arm_cmplx_mag_f32
 616              	.LVL62:
 617              		.loc 1 225 0
 618 0108 4FF48062 		mov	r2, #1024
 619 010c 1849     		ldr	r1, .L73+40
 620 010e 1448     		ldr	r0, .L73+24
 621 0110 FFF7FEFF 		bl	arm_cmplx_mag_f32
 622              	.LVL63:
 623              		.loc 1 229 0
 624 0114 019A     		ldr	r2, [sp, #4]
 625 0116 3368     		ldr	r3, [r6]
 626              		.loc 1 227 0
 627 0118 0021     		movs	r1, #0
ARM GAS  C:\Users\Loicc\AppData\Local\Temp\ccUvvZad.s 			page 12


 628              		.loc 1 229 0
 629 011a 9A42     		cmp	r2, r3
 630              		.loc 1 227 0
 631 011c 3980     		strh	r1, [r7]	@ movhi
 632              		.loc 1 229 0
 633 011e 11D1     		bne	.L71
 634 0120 1348     		ldr	r0, .L73+40
 635              		.loc 1 231 0
 636 0122 03B0     		add	sp, sp, #12
 637              		.cfi_remember_state
 638              		.cfi_def_cfa_offset 36
 639              		@ sp needed
 640 0124 BDE8F04F 		pop	{r4, r5, r6, r7, r8, r9, r10, fp, lr}
 641              		.cfi_restore 14
 642              		.cfi_restore 11
 643              		.cfi_restore 10
 644              		.cfi_restore 9
 645              		.cfi_restore 8
 646              		.cfi_restore 7
 647              		.cfi_restore 6
 648              		.cfi_restore 5
 649              		.cfi_restore 4
 650              		.cfi_def_cfa_offset 0
 651              		.loc 1 229 0
 652 0128 FFF7FEBF 		b	sound_remote
 653              	.LVL64:
 654              	.L62:
 655              		.cfi_restore_state
 656              		.loc 1 201 0
 657 012c B2F5006F 		cmp	r2, #2048
 658 0130 C4D2     		bcs	.L64
 659              	.LVL65:
 660              	.L61:
 661              		.loc 1 231 0
 662 0132 019A     		ldr	r2, [sp, #4]
 663 0134 3368     		ldr	r3, [r6]
 664 0136 9A42     		cmp	r2, r3
 665 0138 04D1     		bne	.L71
 666 013a 03B0     		add	sp, sp, #12
 667              		.cfi_remember_state
 668              		.cfi_def_cfa_offset 36
 669              		@ sp needed
 670 013c BDE8F08F 		pop	{r4, r5, r6, r7, r8, r9, r10, fp, pc}
 671              	.LVL66:
 672              	.L72:
 673              		.cfi_restore_state
 674 0140 3A80     		strh	r2, [r7]	@ movhi
 675 0142 F6E7     		b	.L61
 676              	.LVL67:
 677              	.L71:
 678 0144 FFF7FEFF 		bl	__stack_chk_fail
 679              	.LVL68:
 680              	.L74:
 681              		.align	2
 682              	.L73:
 683 0148 00000000 		.word	__stack_chk_guard
 684 014c 00000000 		.word	.LANCHOR0
ARM GAS  C:\Users\Loicc\AppData\Local\Temp\ccUvvZad.s 			page 13


 685 0150 00000000 		.word	0
 686 0154 00000000 		.word	micRight_cmplx_input
 687 0158 00000000 		.word	micLeft_cmplx_input
 688 015c 00000000 		.word	micFront_cmplx_input
 689 0160 00000000 		.word	micBack_cmplx_input
 690 0164 00000000 		.word	micRight_output
 691 0168 00000000 		.word	micLeft_output
 692 016c 00000000 		.word	micFront_output
 693 0170 00000000 		.word	micBack_output
 694              		.cfi_endproc
 695              	.LFE291:
 696              		.size	processAudioData, .-processAudioData
 697              		.section	.bss.micBack_cmplx_input,"aw",%nobits
 698              		.align	2
 699              		.type	micBack_cmplx_input, %object
 700              		.size	micBack_cmplx_input, 8192
 701              	micBack_cmplx_input:
 702 0000 00000000 		.space	8192
 702      00000000 
 702      00000000 
 702      00000000 
 702      00000000 
 703              		.section	.bss.micBack_output,"aw",%nobits
 704              		.align	2
 705              		.type	micBack_output, %object
 706              		.size	micBack_output, 4096
 707              	micBack_output:
 708 0000 00000000 		.space	4096
 708      00000000 
 708      00000000 
 708      00000000 
 708      00000000 
 709              		.section	.bss.micFront_cmplx_input,"aw",%nobits
 710              		.align	2
 711              		.type	micFront_cmplx_input, %object
 712              		.size	micFront_cmplx_input, 8192
 713              	micFront_cmplx_input:
 714 0000 00000000 		.space	8192
 714      00000000 
 714      00000000 
 714      00000000 
 714      00000000 
 715              		.section	.bss.micFront_output,"aw",%nobits
 716              		.align	2
 717              		.type	micFront_output, %object
 718              		.size	micFront_output, 4096
 719              	micFront_output:
 720 0000 00000000 		.space	4096
 720      00000000 
 720      00000000 
 720      00000000 
 720      00000000 
 721              		.section	.bss.micLeft_cmplx_input,"aw",%nobits
 722              		.align	2
 723              		.type	micLeft_cmplx_input, %object
 724              		.size	micLeft_cmplx_input, 8192
 725              	micLeft_cmplx_input:
ARM GAS  C:\Users\Loicc\AppData\Local\Temp\ccUvvZad.s 			page 14


 726 0000 00000000 		.space	8192
 726      00000000 
 726      00000000 
 726      00000000 
 726      00000000 
 727              		.section	.bss.micLeft_output,"aw",%nobits
 728              		.align	2
 729              		.type	micLeft_output, %object
 730              		.size	micLeft_output, 4096
 731              	micLeft_output:
 732 0000 00000000 		.space	4096
 732      00000000 
 732      00000000 
 732      00000000 
 732      00000000 
 733              		.section	.bss.micRight_cmplx_input,"aw",%nobits
 734              		.align	2
 735              		.type	micRight_cmplx_input, %object
 736              		.size	micRight_cmplx_input, 8192
 737              	micRight_cmplx_input:
 738 0000 00000000 		.space	8192
 738      00000000 
 738      00000000 
 738      00000000 
 738      00000000 
 739              		.section	.bss.micRight_output,"aw",%nobits
 740              		.align	2
 741              		.type	micRight_output, %object
 742              		.size	micRight_output, 4096
 743              	micRight_output:
 744 0000 00000000 		.space	4096
 744      00000000 
 744      00000000 
 744      00000000 
 744      00000000 
 745              		.section	.bss.nb_samples.14164,"aw",%nobits
 746              		.align	1
 747              		.set	.LANCHOR0,. + 0
 748              		.type	nb_samples.14164, %object
 749              		.size	nb_samples.14164, 2
 750              	nb_samples.14164:
 751 0000 0000     		.space	2
 752              		.text
 753              	.Letext0:
 754              		.file 2 "c:\\users\\loicc\\documents\\epfl\\microinfo\\eclipse_e-puck2\\tools\\gcc-arm-none-eabi-7
 755              		.file 3 "c:\\users\\loicc\\documents\\epfl\\microinfo\\eclipse_e-puck2\\tools\\gcc-arm-none-eabi-7
 756              		.file 4 "c:\\users\\loicc\\documents\\epfl\\microinfo\\eclipse_e-puck2\\tools\\gcc-arm-none-eabi-7
 757              		.file 5 "../../lib/e-puck2_main-processor/ChibiOS//os/rt/ports/ARMCMx/compilers/GCC/chtypes.h"
 758              		.file 6 "../../lib/e-puck2_main-processor/ChibiOS//os/rt/include/chsystypes.h"
 759              		.file 7 "../../lib/e-puck2_main-processor/ChibiOS//os/rt/include/chschd.h"
 760              		.file 8 "../../lib/e-puck2_main-processor/ChibiOS//os/ext/CMSIS/include/core_cm4.h"
 761              		.file 9 "../../lib/e-puck2_main-processor/ChibiOS//os/ext/CMSIS/ST/system_stm32f4xx.h"
 762              		.file 10 "../../lib/e-puck2_main-processor/ChibiOS//os/ext/CMSIS/ST/stm32f407xx.h"
 763              		.file 11 "../../lib/e-puck2_main-processor/ChibiOS//os/rt/ports/ARMCMx/chcore.h"
 764              		.file 12 "../../lib/e-puck2_main-processor/ChibiOS//os/rt/ports/ARMCMx/chcore_v7m.h"
 765              		.file 13 "../../lib/e-puck2_main-processor/ChibiOS//os/rt/include/chdebug.h"
 766              		.file 14 "../../lib/e-puck2_main-processor/ChibiOS//os/rt/include/chtm.h"
ARM GAS  C:\Users\Loicc\AppData\Local\Temp\ccUvvZad.s 			page 15


 767              		.file 15 "../../lib/e-puck2_main-processor/ChibiOS//os/rt/include/chstats.h"
 768              		.file 16 "../../lib/e-puck2_main-processor/ChibiOS//os/rt/include/chsem.h"
 769              		.file 17 "../../lib/e-puck2_main-processor/ChibiOS//os/rt/include/chmtx.h"
 770              		.file 18 "../../lib/e-puck2_main-processor/ChibiOS//os/rt/include/chregistry.h"
 771              		.file 19 "../../lib/e-puck2_main-processor/ChibiOS//os/rt/include/chevents.h"
 772              		.file 20 "../../lib/e-puck2_main-processor/ChibiOS//os/rt/include/chqueues.h"
 773              		.file 21 "../../lib/e-puck2_main-processor/ChibiOS//os/hal/ports/STM32/STM32F4xx/stm32_dma.h"
 774              		.file 22 "../../lib/e-puck2_main-processor/ChibiOS//os/hal/include/hal_ioblock.h"
 775              		.file 23 "../../lib/e-puck2_main-processor/ChibiOS//os/hal/ports/STM32/LLD/GPIOv2/pal_lld.h"
 776              		.file 24 "../../lib/e-puck2_main-processor/ChibiOS//os/hal/include/adc.h"
 777              		.file 25 "../../lib/e-puck2_main-processor/ChibiOS//os/hal/ports/STM32/STM32F4xx/adc_lld.h"
 778              		.file 26 "../../lib/e-puck2_main-processor/ChibiOS//os/hal/include/can.h"
 779              		.file 27 "../../lib/e-puck2_main-processor/ChibiOS//os/hal/ports/STM32/LLD/can_lld.h"
 780              		.file 28 "../../lib/e-puck2_main-processor/ChibiOS//os/hal/include/dac.h"
 781              		.file 29 "../../lib/e-puck2_main-processor/ChibiOS//os/hal/ports/STM32/LLD/DACv1/dac_lld.h"
 782              		.file 30 "../../lib/e-puck2_main-processor/ChibiOS//os/hal/include/ext.h"
 783              		.file 31 "../../lib/e-puck2_main-processor/ChibiOS//os/hal/ports/STM32/LLD/ext_lld.h"
 784              		.file 32 "../../lib/e-puck2_main-processor/ChibiOS//os/hal/include/gpt.h"
 785              		.file 33 "../../lib/e-puck2_main-processor/ChibiOS//os/hal/ports/STM32/LLD/TIMv1/gpt_lld.h"
 786              		.file 34 "../../lib/e-puck2_main-processor/ChibiOS//os/hal/ports/STM32/LLD/TIMv1/stm32_tim.h"
 787              		.file 35 "../../lib/e-puck2_main-processor/ChibiOS//os/hal/include/i2c.h"
 788              		.file 36 "../../lib/e-puck2_main-processor/ChibiOS//os/hal/ports/STM32/LLD/I2Cv1/i2c_lld.h"
 789              		.file 37 "../../lib/e-puck2_main-processor/ChibiOS//os/hal/include/i2s.h"
 790              		.file 38 "../../lib/e-puck2_main-processor/ChibiOS//os/hal/ports/STM32/LLD/SPIv1/i2s_lld.h"
 791              		.file 39 "../../lib/e-puck2_main-processor/ChibiOS//os/hal/include/pwm.h"
 792              		.file 40 "../../lib/e-puck2_main-processor/ChibiOS//os/hal/ports/STM32/LLD/TIMv1/pwm_lld.h"
 793              		.file 41 "../../lib/e-puck2_main-processor/ChibiOS//os/hal/include/serial.h"
 794              		.file 42 "../../lib/e-puck2_main-processor/ChibiOS//os/hal/ports/STM32/LLD/USARTv1/serial_lld.h"
 795              		.file 43 "../../lib/e-puck2_main-processor/ChibiOS//os/hal/include/sdc.h"
 796              		.file 44 "../../lib/e-puck2_main-processor/ChibiOS//os/hal/ports/STM32/LLD/sdc_lld.h"
 797              		.file 45 "../../lib/e-puck2_main-processor/ChibiOS//os/hal/include/spi.h"
 798              		.file 46 "../../lib/e-puck2_main-processor/ChibiOS//os/hal/ports/STM32/LLD/SPIv1/spi_lld.h"
 799              		.file 47 "../../lib/e-puck2_main-processor/ChibiOS//os/hal/include/usb.h"
 800              		.file 48 "../../lib/e-puck2_main-processor/ChibiOS//os/hal/ports/STM32/LLD/OTGv1/usb_lld.h"
 801              		.file 49 "../../lib/e-puck2_main-processor/ChibiOS//os/hal/ports/STM32/LLD/OTGv1/stm32_otg.h"
 802              		.file 50 "../../lib/e-puck2_main-processor/ChibiOS//os/hal/include/serial_usb.h"
 803              		.file 51 "../../lib/e-puck2_main-processor/ChibiOS_ext/os/hal/include/../ports/STM32/STM32F4xx/dcm
 804              		.file 52 "c:\\users\\loicc\\documents\\epfl\\microinfo\\eclipse_e-puck2\\tools\\gcc-arm-none-eabi-
 805              		.file 53 "c:\\users\\loicc\\documents\\epfl\\microinfo\\eclipse_e-puck2\\tools\\gcc-arm-none-eabi-
 806              		.file 54 "c:\\users\\loicc\\documents\\epfl\\microinfo\\eclipse_e-puck2\\tools\\gcc-arm-none-eabi-
 807              		.file 55 "../../lib/e-puck2_main-processor/src/msgbus/messagebus.h"
 808              		.file 56 "c:\\users\\loicc\\documents\\epfl\\microinfo\\eclipse_e-puck2\\tools\\gcc-arm-none-eabi-
 809              		.file 57 "c:\\users\\loicc\\documents\\epfl\\microinfo\\eclipse_e-puck2\\tools\\gcc-arm-none-eabi-
 810              		.file 58 "../../lib/e-puck2_main-processor/src/parameter/parameter.h"
 811              		.file 59 "./main.h"
 812              		.file 60 "../../lib/e-puck2_main-processor/src/usbcfg.h"
 813              		.file 61 "c:\\users\\loicc\\documents\\epfl\\microinfo\\eclipse_e-puck2\\tools\\gcc-arm-none-eabi-
 814              		.file 62 "./fft.h"
 815              		.file 63 "../../lib/e-puck2_main-processor/ChibiOS//os/ext/CMSIS/include/arm_math.h"
 816              		.file 64 "./detection.h"
 817              		.file 65 "../../lib/e-puck2_main-processor/src/motors.h"