ARM GAS  C:\Users\Loicc\AppData\Local\Temp\ccgbXgML.s 			page 1


   1              		.cpu cortex-m4
   2              		.eabi_attribute 27, 1
   3              		.eabi_attribute 28, 1
   4              		.eabi_attribute 20, 1
   5              		.eabi_attribute 21, 1
   6              		.eabi_attribute 23, 3
   7              		.eabi_attribute 24, 1
   8              		.eabi_attribute 25, 1
   9              		.eabi_attribute 26, 1
  10              		.eabi_attribute 30, 2
  11              		.eabi_attribute 34, 1
  12              		.eabi_attribute 18, 4
  13              		.file	"detection.c"
  14              		.text
  15              	.Ltext0:
  16              		.cfi_sections	.debug_frame
  17              		.section	.text.chprintf.constprop.0,"ax",%progbits
  18              		.align	1
  19              		.p2align 4,,15
  20              		.syntax unified
  21              		.thumb
  22              		.thumb_func
  23              		.fpu fpv4-sp-d16
  24              		.type	chprintf.constprop.0, %function
  25              	chprintf.constprop.0:
  26              	.LFB264:
  27              		.file 1 "../../lib/e-puck2_main-processor/ChibiOS//os/hal/lib/streams/chprintf.h"
  28              		.loc 1 69 0
  29              		.cfi_startproc
  30              		@ args = 4, pretend = 12, frame = 8
  31              		@ frame_needed = 0, uses_anonymous_args = 1
  32              	.LVL0:
  33 0000 0EB4     		push	{r1, r2, r3}
  34              		.cfi_def_cfa_offset 12
  35              		.cfi_offset 1, -12
  36              		.cfi_offset 2, -8
  37              		.cfi_offset 3, -4
  38 0002 10B5     		push	{r4, lr}
  39              		.cfi_def_cfa_offset 20
  40              		.cfi_offset 4, -20
  41              		.cfi_offset 14, -16
  42 0004 83B0     		sub	sp, sp, #12
  43              		.cfi_def_cfa_offset 32
  44              		.loc 1 69 0
  45 0006 05AA     		add	r2, sp, #20
  46 0008 094C     		ldr	r4, .L6
  47 000a 52F8041B 		ldr	r1, [r2], #4
  48 000e 2368     		ldr	r3, [r4]
  49              		.loc 1 74 0
  50 0010 0848     		ldr	r0, .L6+4
  51              	.LVL1:
  52              		.loc 1 73 0
  53 0012 0092     		str	r2, [sp]
  54              		.loc 1 69 0
  55 0014 0193     		str	r3, [sp, #4]
  56              	.LVL2:
  57              		.loc 1 74 0
ARM GAS  C:\Users\Loicc\AppData\Local\Temp\ccgbXgML.s 			page 2


  58 0016 FFF7FEFF 		bl	chvprintf
  59              	.LVL3:
  60              		.loc 1 78 0
  61 001a 019A     		ldr	r2, [sp, #4]
  62 001c 2368     		ldr	r3, [r4]
  63 001e 9A42     		cmp	r2, r3
  64 0020 04D1     		bne	.L5
  65 0022 03B0     		add	sp, sp, #12
  66              		.cfi_remember_state
  67              		.cfi_def_cfa_offset 20
  68              		@ sp needed
  69 0024 BDE81040 		pop	{r4, lr}
  70              		.cfi_restore 14
  71              		.cfi_restore 4
  72              		.cfi_def_cfa_offset 12
  73 0028 03B0     		add	sp, sp, #12
  74              		.cfi_restore 3
  75              		.cfi_restore 2
  76              		.cfi_restore 1
  77              		.cfi_def_cfa_offset 0
  78 002a 7047     		bx	lr
  79              	.L5:
  80              		.cfi_restore_state
  81 002c FFF7FEFF 		bl	__stack_chk_fail
  82              	.LVL4:
  83              	.L7:
  84              		.align	2
  85              	.L6:
  86 0030 00000000 		.word	__stack_chk_guard
  87 0034 00000000 		.word	SD3
  88              		.cfi_endproc
  89              	.LFE264:
  90              		.size	chprintf.constprop.0, .-chprintf.constprop.0
  91              		.global	__aeabi_f2d
  92              		.section	.text.ProxThread,"ax",%progbits
  93              		.align	1
  94              		.p2align 4,,15
  95              		.syntax unified
  96              		.thumb
  97              		.thumb_func
  98              		.fpu fpv4-sp-d16
  99              		.type	ProxThread, %function
 100              	ProxThread:
 101              	.LFB261:
 102              		.file 2 "detection.c"
 103              		.loc 2 48 0
 104              		.cfi_startproc
 105              		@ Volatile: function does not return.
 106              		@ args = 0, pretend = 0, frame = 8
 107              		@ frame_needed = 0, uses_anonymous_args = 0
 108              	.LVL5:
 109 0000 80B5     		push	{r7, lr}
 110              		.cfi_def_cfa_offset 8
 111              		.cfi_offset 7, -8
 112              		.cfi_offset 14, -4
 113              	.LBB4:
 114              	.LBB5:
ARM GAS  C:\Users\Loicc\AppData\Local\Temp\ccgbXgML.s 			page 3


 115              		.file 3 "../../lib/e-puck2_main-processor/ChibiOS//os/rt/include/chregistry.h"
 116              		.loc 3 135 0
 117 0002 4E4A     		ldr	r2, .L12
 118              	.LBE5:
 119              	.LBE4:
 120              		.loc 2 48 0
 121 0004 4E4B     		ldr	r3, .L12+4
 122              	.LBB8:
 123              	.LBB6:
 124              		.loc 3 135 0
 125 0006 9269     		ldr	r2, [r2, #24]
 126 0008 4E49     		ldr	r1, .L12+8
 127              	.LBE6:
 128              	.LBE8:
 129              		.loc 2 48 0
 130 000a 1B68     		ldr	r3, [r3]
 131 000c 4E4C     		ldr	r4, .L12+12
 132              		.loc 2 62 0
 133 000e 4F4F     		ldr	r7, .L12+16
 134 0010 4F4D     		ldr	r5, .L12+20
 135              		.loc 2 63 0
 136 0012 504E     		ldr	r6, .L12+24
 137              	.LBB9:
 138              	.LBB7:
 139              		.loc 3 135 0
 140 0014 9161     		str	r1, [r2, #24]
 141              	.LBE7:
 142              	.LBE9:
 143              		.loc 2 48 0
 144 0016 82B0     		sub	sp, sp, #8
 145              		.cfi_def_cfa_offset 16
 146              		.loc 2 48 0
 147 0018 0193     		str	r3, [sp, #4]
 148              	.LVL6:
 149              	.L9:
 150              		.loc 2 53 0 discriminator 1
 151 001a 0120     		movs	r0, #1
 152 001c FFF7FEFF 		bl	get_calibrated_prox
 153              	.LVL7:
 154 0020 07EE900A 		vmov	s15, r0	@ int
 155 0024 F8EEE77A 		vcvt.f32.s32	s15, s15
 156              		.loc 2 54 0 discriminator 1
 157 0028 0220     		movs	r0, #2
 158              		.loc 2 53 0 discriminator 1
 159 002a C4ED017A 		vstr.32	s15, [r4, #4]
 160              		.loc 2 54 0 discriminator 1
 161 002e FFF7FEFF 		bl	get_calibrated_prox
 162              	.LVL8:
 163 0032 07EE900A 		vmov	s15, r0	@ int
 164 0036 F8EEE77A 		vcvt.f32.s32	s15, s15
 165              		.loc 2 55 0 discriminator 1
 166 003a 0320     		movs	r0, #3
 167              		.loc 2 54 0 discriminator 1
 168 003c C4ED027A 		vstr.32	s15, [r4, #8]
 169              		.loc 2 55 0 discriminator 1
 170 0040 FFF7FEFF 		bl	get_calibrated_prox
 171              	.LVL9:
ARM GAS  C:\Users\Loicc\AppData\Local\Temp\ccgbXgML.s 			page 4


 172 0044 07EE900A 		vmov	s15, r0	@ int
 173 0048 F8EEE77A 		vcvt.f32.s32	s15, s15
 174              		.loc 2 56 0 discriminator 1
 175 004c 0420     		movs	r0, #4
 176              		.loc 2 55 0 discriminator 1
 177 004e C4ED037A 		vstr.32	s15, [r4, #12]
 178              		.loc 2 56 0 discriminator 1
 179 0052 FFF7FEFF 		bl	get_calibrated_prox
 180              	.LVL10:
 181 0056 07EE900A 		vmov	s15, r0	@ int
 182 005a F8EEE77A 		vcvt.f32.s32	s15, s15
 183              		.loc 2 57 0 discriminator 1
 184 005e 0520     		movs	r0, #5
 185              		.loc 2 56 0 discriminator 1
 186 0060 C4ED047A 		vstr.32	s15, [r4, #16]
 187              		.loc 2 57 0 discriminator 1
 188 0064 FFF7FEFF 		bl	get_calibrated_prox
 189              	.LVL11:
 190 0068 07EE900A 		vmov	s15, r0	@ int
 191 006c F8EEE77A 		vcvt.f32.s32	s15, s15
 192              		.loc 2 58 0 discriminator 1
 193 0070 0620     		movs	r0, #6
 194              		.loc 2 57 0 discriminator 1
 195 0072 C4ED057A 		vstr.32	s15, [r4, #20]
 196              		.loc 2 58 0 discriminator 1
 197 0076 FFF7FEFF 		bl	get_calibrated_prox
 198              	.LVL12:
 199 007a 07EE900A 		vmov	s15, r0	@ int
 200 007e F8EEE77A 		vcvt.f32.s32	s15, s15
 201              		.loc 2 59 0 discriminator 1
 202 0082 0720     		movs	r0, #7
 203              		.loc 2 58 0 discriminator 1
 204 0084 C4ED067A 		vstr.32	s15, [r4, #24]
 205              		.loc 2 59 0 discriminator 1
 206 0088 FFF7FEFF 		bl	get_calibrated_prox
 207              	.LVL13:
 208 008c 07EE900A 		vmov	s15, r0	@ int
 209 0090 F8EEE77A 		vcvt.f32.s32	s15, s15
 210              		.loc 2 60 0 discriminator 1
 211 0094 0820     		movs	r0, #8
 212              		.loc 2 59 0 discriminator 1
 213 0096 C4ED077A 		vstr.32	s15, [r4, #28]
 214              		.loc 2 60 0 discriminator 1
 215 009a FFF7FEFF 		bl	get_calibrated_prox
 216              	.LVL14:
 217 009e 07EE900A 		vmov	s15, r0	@ int
 218 00a2 F8EEE77A 		vcvt.f32.s32	s15, s15
 219              		.loc 2 62 0 discriminator 1
 220 00a6 6068     		ldr	r0, [r4, #4]	@ float
 221              		.loc 2 60 0 discriminator 1
 222 00a8 C4ED087A 		vstr.32	s15, [r4, #32]
 223              		.loc 2 62 0 discriminator 1
 224 00ac FFF7FEFF 		bl	__aeabi_f2d
 225              	.LVL15:
 226 00b0 0246     		mov	r2, r0
 227 00b2 0B46     		mov	r3, r1
 228 00b4 2846     		mov	r0, r5
ARM GAS  C:\Users\Loicc\AppData\Local\Temp\ccgbXgML.s 			page 5


 229 00b6 3946     		mov	r1, r7
 230 00b8 FFF7FEFF 		bl	chprintf.constprop.0
 231              	.LVL16:
 232              		.loc 2 63 0 discriminator 1
 233 00bc A068     		ldr	r0, [r4, #8]	@ float
 234 00be FFF7FEFF 		bl	__aeabi_f2d
 235              	.LVL17:
 236 00c2 0246     		mov	r2, r0
 237 00c4 0B46     		mov	r3, r1
 238 00c6 2846     		mov	r0, r5
 239 00c8 3146     		mov	r1, r6
 240 00ca FFF7FEFF 		bl	chprintf.constprop.0
 241              	.LVL18:
 242              		.loc 2 64 0 discriminator 1
 243 00ce E068     		ldr	r0, [r4, #12]	@ float
 244 00d0 FFF7FEFF 		bl	__aeabi_f2d
 245              	.LVL19:
 246 00d4 0246     		mov	r2, r0
 247 00d6 0B46     		mov	r3, r1
 248 00d8 2846     		mov	r0, r5
 249 00da 1F49     		ldr	r1, .L12+28
 250 00dc FFF7FEFF 		bl	chprintf.constprop.0
 251              	.LVL20:
 252              		.loc 2 65 0 discriminator 1
 253 00e0 2069     		ldr	r0, [r4, #16]	@ float
 254 00e2 FFF7FEFF 		bl	__aeabi_f2d
 255              	.LVL21:
 256 00e6 0246     		mov	r2, r0
 257 00e8 0B46     		mov	r3, r1
 258 00ea 2846     		mov	r0, r5
 259 00ec 1B49     		ldr	r1, .L12+32
 260 00ee FFF7FEFF 		bl	chprintf.constprop.0
 261              	.LVL22:
 262              		.loc 2 66 0 discriminator 1
 263 00f2 6069     		ldr	r0, [r4, #20]	@ float
 264 00f4 FFF7FEFF 		bl	__aeabi_f2d
 265              	.LVL23:
 266 00f8 0246     		mov	r2, r0
 267 00fa 0B46     		mov	r3, r1
 268 00fc 2846     		mov	r0, r5
 269 00fe 1849     		ldr	r1, .L12+36
 270 0100 FFF7FEFF 		bl	chprintf.constprop.0
 271              	.LVL24:
 272              		.loc 2 67 0 discriminator 1
 273 0104 A069     		ldr	r0, [r4, #24]	@ float
 274 0106 FFF7FEFF 		bl	__aeabi_f2d
 275              	.LVL25:
 276 010a 0246     		mov	r2, r0
 277 010c 0B46     		mov	r3, r1
 278 010e 2846     		mov	r0, r5
 279 0110 1449     		ldr	r1, .L12+40
 280 0112 FFF7FEFF 		bl	chprintf.constprop.0
 281              	.LVL26:
 282              		.loc 2 68 0 discriminator 1
 283 0116 E069     		ldr	r0, [r4, #28]	@ float
 284 0118 FFF7FEFF 		bl	__aeabi_f2d
 285              	.LVL27:
ARM GAS  C:\Users\Loicc\AppData\Local\Temp\ccgbXgML.s 			page 6


 286 011c 0246     		mov	r2, r0
 287 011e 0B46     		mov	r3, r1
 288 0120 2846     		mov	r0, r5
 289 0122 1149     		ldr	r1, .L12+44
 290 0124 FFF7FEFF 		bl	chprintf.constprop.0
 291              	.LVL28:
 292              		.loc 2 69 0 discriminator 1
 293 0128 206A     		ldr	r0, [r4, #32]	@ float
 294 012a FFF7FEFF 		bl	__aeabi_f2d
 295              	.LVL29:
 296 012e 0246     		mov	r2, r0
 297 0130 0B46     		mov	r3, r1
 298 0132 2846     		mov	r0, r5
 299 0134 0D49     		ldr	r1, .L12+48
 300 0136 FFF7FEFF 		bl	chprintf.constprop.0
 301              	.LVL30:
 302 013a 6EE7     		b	.L9
 303              	.L13:
 304              		.align	2
 305              	.L12:
 306 013c 00000000 		.word	ch
 307 0140 00000000 		.word	__stack_chk_guard
 308 0144 00000000 		.word	.LANCHOR0
 309 0148 00000000 		.word	.LANCHOR1
 310 014c 00000000 		.word	.LC0
 311 0150 00000000 		.word	SD3
 312 0154 28000000 		.word	.LC1
 313 0158 50000000 		.word	.LC2
 314 015c 70000000 		.word	.LC3
 315 0160 94000000 		.word	.LC4
 316 0164 B8000000 		.word	.LC5
 317 0168 D4000000 		.word	.LC6
 318 016c F8000000 		.word	.LC7
 319              		.cfi_endproc
 320              	.LFE261:
 321              		.size	ProxThread, .-ProxThread
 322              		.section	.text.sensors_init,"ax",%progbits
 323              		.align	1
 324              		.p2align 4,,15
 325              		.global	sensors_init
 326              		.syntax unified
 327              		.thumb
 328              		.thumb_func
 329              		.fpu fpv4-sp-d16
 330              		.type	sensors_init, %function
 331              	sensors_init:
 332              	.LFB260:
 333              		.loc 2 38 0
 334              		.cfi_startproc
 335              		@ args = 0, pretend = 0, frame = 8
 336              		@ frame_needed = 0, uses_anonymous_args = 0
 337 0000 10B5     		push	{r4, lr}
 338              		.cfi_def_cfa_offset 8
 339              		.cfi_offset 4, -8
 340              		.cfi_offset 14, -4
 341 0002 0B4C     		ldr	r4, .L19
 342 0004 82B0     		sub	sp, sp, #8
ARM GAS  C:\Users\Loicc\AppData\Local\Temp\ccgbXgML.s 			page 7


 343              		.cfi_def_cfa_offset 16
 344              		.loc 2 38 0
 345 0006 2368     		ldr	r3, [r4]
 346 0008 0193     		str	r3, [sp, #4]
 347              		.loc 2 40 0
 348 000a FFF7FEFF 		bl	VL53L0X_start
 349              	.LVL31:
 350              		.loc 2 42 0
 351 000e FFF7FEFF 		bl	proximity_start
 352              	.LVL32:
 353              		.loc 2 43 0
 354 0012 FFF7FEFF 		bl	calibrate_ir
 355              	.LVL33:
 356              		.loc 2 44 0
 357 0016 019A     		ldr	r2, [sp, #4]
 358 0018 2368     		ldr	r3, [r4]
 359 001a 9A42     		cmp	r2, r3
 360 001c 06D1     		bne	.L18
 361 001e 4FF4FA70 		mov	r0, #500
 362              		.loc 2 45 0
 363 0022 02B0     		add	sp, sp, #8
 364              		.cfi_remember_state
 365              		.cfi_def_cfa_offset 8
 366              		@ sp needed
 367 0024 BDE81040 		pop	{r4, lr}
 368              		.cfi_restore 14
 369              		.cfi_restore 4
 370              		.cfi_def_cfa_offset 0
 371              		.loc 2 44 0
 372 0028 FFF7FEBF 		b	chThdSleep
 373              	.LVL34:
 374              	.L18:
 375              		.cfi_restore_state
 376 002c FFF7FEFF 		bl	__stack_chk_fail
 377              	.LVL35:
 378              	.L20:
 379              		.align	2
 380              	.L19:
 381 0030 00000000 		.word	__stack_chk_guard
 382              		.cfi_endproc
 383              	.LFE260:
 384              		.size	sensors_init, .-sensors_init
 385              		.section	.text.proxthd,"ax",%progbits
 386              		.align	1
 387              		.p2align 4,,15
 388              		.global	proxthd
 389              		.syntax unified
 390              		.thumb
 391              		.thumb_func
 392              		.fpu fpv4-sp-d16
 393              		.type	proxthd, %function
 394              	proxthd:
 395              	.LFB262:
 396              		.loc 2 75 0
 397              		.cfi_startproc
 398              		@ args = 0, pretend = 0, frame = 8
 399              		@ frame_needed = 0, uses_anonymous_args = 0
ARM GAS  C:\Users\Loicc\AppData\Local\Temp\ccgbXgML.s 			page 8


 400 0000 10B5     		push	{r4, lr}
 401              		.cfi_def_cfa_offset 8
 402              		.cfi_offset 4, -8
 403              		.cfi_offset 14, -4
 404 0002 0A4C     		ldr	r4, .L25
 405              		.loc 2 76 0
 406 0004 0A4B     		ldr	r3, .L25+4
 407              		.loc 2 75 0
 408 0006 2268     		ldr	r2, [r4]
 409              		.loc 2 76 0
 410 0008 0A48     		ldr	r0, .L25+8
 411              		.loc 2 75 0
 412 000a 84B0     		sub	sp, sp, #16
 413              		.cfi_def_cfa_offset 24
 414              		.loc 2 76 0
 415 000c 4FF45E71 		mov	r1, #888
 416              		.loc 2 75 0
 417 0010 0392     		str	r2, [sp, #12]
 418              		.loc 2 76 0
 419 0012 0022     		movs	r2, #0
 420 0014 0092     		str	r2, [sp]
 421 0016 4022     		movs	r2, #64
 422 0018 FFF7FEFF 		bl	chThdCreateStatic
 423              	.LVL36:
 424              		.loc 2 77 0
 425 001c 039A     		ldr	r2, [sp, #12]
 426 001e 2368     		ldr	r3, [r4]
 427 0020 9A42     		cmp	r2, r3
 428 0022 01D1     		bne	.L24
 429 0024 04B0     		add	sp, sp, #16
 430              		.cfi_remember_state
 431              		.cfi_def_cfa_offset 8
 432              		@ sp needed
 433 0026 10BD     		pop	{r4, pc}
 434              	.L24:
 435              		.cfi_restore_state
 436 0028 FFF7FEFF 		bl	__stack_chk_fail
 437              	.LVL37:
 438              	.L26:
 439              		.align	2
 440              	.L25:
 441 002c 00000000 		.word	__stack_chk_guard
 442 0030 00000000 		.word	ProxThread
 443 0034 00000000 		.word	.LANCHOR2
 444              		.cfi_endproc
 445              	.LFE262:
 446              		.size	proxthd, .-proxthd
 447              		.section	.text.obstacle_detection,"ax",%progbits
 448              		.align	1
 449              		.p2align 4,,15
 450              		.global	obstacle_detection
 451              		.syntax unified
 452              		.thumb
 453              		.thumb_func
 454              		.fpu fpv4-sp-d16
 455              		.type	obstacle_detection, %function
 456              	obstacle_detection:
ARM GAS  C:\Users\Loicc\AppData\Local\Temp\ccgbXgML.s 			page 9


 457              	.LFB263:
 458              		.loc 2 79 0
 459              		.cfi_startproc
 460              		@ args = 0, pretend = 0, frame = 8
 461              		@ frame_needed = 0, uses_anonymous_args = 0
 462 0000 00B5     		push	{lr}
 463              		.cfi_def_cfa_offset 4
 464              		.cfi_offset 14, -4
 465 0002 064B     		ldr	r3, .L31
 466 0004 83B0     		sub	sp, sp, #12
 467              		.cfi_def_cfa_offset 16
 468              		.loc 2 79 0
 469 0006 1A68     		ldr	r2, [r3]
 470 0008 0192     		str	r2, [sp, #4]
 471              		.loc 2 86 0
 472 000a 019A     		ldr	r2, [sp, #4]
 473 000c 1B68     		ldr	r3, [r3]
 474 000e 9A42     		cmp	r2, r3
 475 0010 02D1     		bne	.L30
 476 0012 03B0     		add	sp, sp, #12
 477              		.cfi_remember_state
 478              		.cfi_def_cfa_offset 4
 479              		@ sp needed
 480 0014 5DF804FB 		ldr	pc, [sp], #4
 481              	.L30:
 482              		.cfi_restore_state
 483 0018 FFF7FEFF 		bl	__stack_chk_fail
 484              	.LVL38:
 485              	.L32:
 486              		.align	2
 487              	.L31:
 488 001c 00000000 		.word	__stack_chk_guard
 489              		.cfi_endproc
 490              	.LFE263:
 491              		.size	obstacle_detection, .-obstacle_detection
 492              		.section	.bss.prox_value,"aw",%nobits
 493              		.align	2
 494              		.set	.LANCHOR1,. + 0
 495              		.type	prox_value, %object
 496              		.size	prox_value, 36
 497              	prox_value:
 498 0000 00000000 		.space	36
 498      00000000 
 498      00000000 
 498      00000000 
 498      00000000 
 499              		.section	.bss.waProxThread,"aw",%nobits
 500              		.align	3
 501              		.set	.LANCHOR2,. + 0
 502              		.type	waProxThread, %object
 503              		.size	waProxThread, 888
 504              	waProxThread:
 505 0000 00000000 		.space	888
 505      00000000 
 505      00000000 
 505      00000000 
 505      00000000 
ARM GAS  C:\Users\Loicc\AppData\Local\Temp\ccgbXgML.s 			page 10


 506              		.section	.rodata.ProxThread.str1.4,"aMS",%progbits,1
 507              		.align	2
 508              	.LC0:
 509 0000 70726F78 		.ascii	"prox_value[PROX_FRONT_RIGHT_F]= %f \012\000"
 509      5F76616C 
 509      75655B50 
 509      524F585F 
 509      46524F4E 
 510 0025 000000   		.space	3
 511              	.LC1:
 512 0028 70726F78 		.ascii	"prox_value[PROX_FRONT_RIGHT_R]= %f \012\000"
 512      5F76616C 
 512      75655B50 
 512      524F585F 
 512      46524F4E 
 513 004d 000000   		.space	3
 514              	.LC2:
 515 0050 70726F78 		.ascii	"prox_value[PROX_RIGHT]= %f \012\000"
 515      5F76616C 
 515      75655B50 
 515      524F585F 
 515      52494748 
 516 006d 000000   		.space	3
 517              	.LC3:
 518 0070 70726F78 		.ascii	"prox_value[PROX_BACK_RIGHT]= %f \012\000"
 518      5F76616C 
 518      75655B50 
 518      524F585F 
 518      4241434B 
 519 0092 0000     		.space	2
 520              	.LC4:
 521 0094 70726F78 		.ascii	"prox_value[PROX_BACK_LEFT]= %f \012\000"
 521      5F76616C 
 521      75655B50 
 521      524F585F 
 521      4241434B 
 522 00b5 000000   		.space	3
 523              	.LC5:
 524 00b8 70726F78 		.ascii	"prox_value[PROX_LEFT]= %f \012\000"
 524      5F76616C 
 524      75655B50 
 524      524F585F 
 524      4C454654 
 525              	.LC6:
 526 00d4 70726F78 		.ascii	"prox_value[PROX_FRONT_LEFT_L]= %f \012\000"
 526      5F76616C 
 526      75655B50 
 526      524F585F 
 526      46524F4E 
 527              	.LC7:
 528 00f8 70726F78 		.ascii	"prox_value[PROX_FRONT_LEFT_F]= %f \012\000"
 528      5F76616C 
 528      75655B50 
 528      524F585F 
 528      46524F4E 
 529              		.section	.rodata.__FUNCTION__.13461,"a",%progbits
 530              		.align	2
ARM GAS  C:\Users\Loicc\AppData\Local\Temp\ccgbXgML.s 			page 11


 531              		.set	.LANCHOR0,. + 0
 532              		.type	__FUNCTION__.13461, %object
 533              		.size	__FUNCTION__.13461, 11
 534              	__FUNCTION__.13461:
 535 0000 50726F78 		.ascii	"ProxThread\000"
 535      54687265 
 535      616400
 536              		.text
 537              	.Letext0:
 538              		.file 4 "c:\\users\\loicc\\documents\\epfl\\microinfo\\eclipse_e-puck2\\tools\\gcc-arm-none-eabi-7
 539              		.file 5 "c:\\users\\loicc\\documents\\epfl\\microinfo\\eclipse_e-puck2\\tools\\gcc-arm-none-eabi-7
 540              		.file 6 "c:\\users\\loicc\\documents\\epfl\\microinfo\\eclipse_e-puck2\\tools\\gcc-arm-none-eabi-7
 541              		.file 7 "../../lib/e-puck2_main-processor/ChibiOS//os/rt/ports/ARMCMx/compilers/GCC/chtypes.h"
 542              		.file 8 "../../lib/e-puck2_main-processor/ChibiOS//os/rt/include/chsystypes.h"
 543              		.file 9 "../../lib/e-puck2_main-processor/ChibiOS//os/rt/include/chschd.h"
 544              		.file 10 "../../lib/e-puck2_main-processor/ChibiOS//os/ext/CMSIS/include/core_cm4.h"
 545              		.file 11 "../../lib/e-puck2_main-processor/ChibiOS//os/ext/CMSIS/ST/system_stm32f4xx.h"
 546              		.file 12 "../../lib/e-puck2_main-processor/ChibiOS//os/ext/CMSIS/ST/stm32f407xx.h"
 547              		.file 13 "../../lib/e-puck2_main-processor/ChibiOS//os/rt/ports/ARMCMx/chcore.h"
 548              		.file 14 "../../lib/e-puck2_main-processor/ChibiOS//os/rt/ports/ARMCMx/chcore_v7m.h"
 549              		.file 15 "../../lib/e-puck2_main-processor/ChibiOS//os/rt/include/chdebug.h"
 550              		.file 16 "../../lib/e-puck2_main-processor/ChibiOS//os/rt/include/chtm.h"
 551              		.file 17 "../../lib/e-puck2_main-processor/ChibiOS//os/rt/include/chstats.h"
 552              		.file 18 "../../lib/e-puck2_main-processor/ChibiOS//os/rt/include/chsem.h"
 553              		.file 19 "../../lib/e-puck2_main-processor/ChibiOS//os/rt/include/chmtx.h"
 554              		.file 20 "../../lib/e-puck2_main-processor/ChibiOS//os/rt/include/chevents.h"
 555              		.file 21 "../../lib/e-puck2_main-processor/ChibiOS//os/rt/include/chqueues.h"
 556              		.file 22 "../../lib/e-puck2_main-processor/ChibiOS//os/rt/include/chstreams.h"
 557              		.file 23 "../../lib/e-puck2_main-processor/ChibiOS//os/hal/ports/STM32/STM32F4xx/stm32_dma.h"
 558              		.file 24 "../../lib/e-puck2_main-processor/ChibiOS//os/hal/include/hal_ioblock.h"
 559              		.file 25 "../../lib/e-puck2_main-processor/ChibiOS//os/hal/ports/STM32/LLD/GPIOv2/pal_lld.h"
 560              		.file 26 "../../lib/e-puck2_main-processor/ChibiOS//os/hal/include/adc.h"
 561              		.file 27 "../../lib/e-puck2_main-processor/ChibiOS//os/hal/ports/STM32/STM32F4xx/adc_lld.h"
 562              		.file 28 "../../lib/e-puck2_main-processor/ChibiOS//os/hal/include/can.h"
 563              		.file 29 "../../lib/e-puck2_main-processor/ChibiOS//os/hal/ports/STM32/LLD/can_lld.h"
 564              		.file 30 "../../lib/e-puck2_main-processor/ChibiOS//os/hal/include/dac.h"
 565              		.file 31 "../../lib/e-puck2_main-processor/ChibiOS//os/hal/ports/STM32/LLD/DACv1/dac_lld.h"
 566              		.file 32 "../../lib/e-puck2_main-processor/ChibiOS//os/hal/include/ext.h"
 567              		.file 33 "../../lib/e-puck2_main-processor/ChibiOS//os/hal/ports/STM32/LLD/ext_lld.h"
 568              		.file 34 "../../lib/e-puck2_main-processor/ChibiOS//os/hal/include/gpt.h"
 569              		.file 35 "../../lib/e-puck2_main-processor/ChibiOS//os/hal/ports/STM32/LLD/TIMv1/gpt_lld.h"
 570              		.file 36 "../../lib/e-puck2_main-processor/ChibiOS//os/hal/ports/STM32/LLD/TIMv1/stm32_tim.h"
 571              		.file 37 "../../lib/e-puck2_main-processor/ChibiOS//os/hal/include/i2c.h"
 572              		.file 38 "../../lib/e-puck2_main-processor/ChibiOS//os/hal/ports/STM32/LLD/I2Cv1/i2c_lld.h"
 573              		.file 39 "../../lib/e-puck2_main-processor/ChibiOS//os/hal/include/i2s.h"
 574              		.file 40 "../../lib/e-puck2_main-processor/ChibiOS//os/hal/ports/STM32/LLD/SPIv1/i2s_lld.h"
 575              		.file 41 "../../lib/e-puck2_main-processor/ChibiOS//os/hal/include/pwm.h"
 576              		.file 42 "../../lib/e-puck2_main-processor/ChibiOS//os/hal/ports/STM32/LLD/TIMv1/pwm_lld.h"
 577              		.file 43 "../../lib/e-puck2_main-processor/ChibiOS//os/hal/include/serial.h"
 578              		.file 44 "../../lib/e-puck2_main-processor/ChibiOS//os/hal/ports/STM32/LLD/USARTv1/serial_lld.h"
 579              		.file 45 "../../lib/e-puck2_main-processor/ChibiOS//os/hal/include/sdc.h"
 580              		.file 46 "../../lib/e-puck2_main-processor/ChibiOS//os/hal/ports/STM32/LLD/sdc_lld.h"
 581              		.file 47 "../../lib/e-puck2_main-processor/ChibiOS//os/hal/include/spi.h"
 582              		.file 48 "../../lib/e-puck2_main-processor/ChibiOS//os/hal/ports/STM32/LLD/SPIv1/spi_lld.h"
 583              		.file 49 "../../lib/e-puck2_main-processor/ChibiOS//os/hal/include/usb.h"
 584              		.file 50 "../../lib/e-puck2_main-processor/ChibiOS//os/hal/ports/STM32/LLD/OTGv1/usb_lld.h"
 585              		.file 51 "../../lib/e-puck2_main-processor/ChibiOS//os/hal/ports/STM32/LLD/OTGv1/stm32_otg.h"
ARM GAS  C:\Users\Loicc\AppData\Local\Temp\ccgbXgML.s 			page 12


 586              		.file 52 "../../lib/e-puck2_main-processor/ChibiOS//os/hal/include/serial_usb.h"
 587              		.file 53 "c:\\users\\loicc\\documents\\epfl\\microinfo\\eclipse_e-puck2\\tools\\gcc-arm-none-eabi-
 588              		.file 54 "c:\\users\\loicc\\documents\\epfl\\microinfo\\eclipse_e-puck2\\tools\\gcc-arm-none-eabi-
 589              		.file 55 "c:\\users\\loicc\\documents\\epfl\\microinfo\\eclipse_e-puck2\\tools\\gcc-arm-none-eabi-
 590              		.file 56 "c:\\users\\loicc\\documents\\epfl\\microinfo\\eclipse_e-puck2\\tools\\gcc-arm-none-eabi-
 591              		.file 57 "../../lib/e-puck2_main-processor/src/usbcfg.h"
 592              		.file 58 "c:\\users\\loicc\\documents\\epfl\\microinfo\\eclipse_e-puck2\\tools\\gcc-arm-none-eabi-
 593              		.file 59 "<built-in>"
 594              		.file 60 "../../lib/e-puck2_main-processor/ChibiOS_ext/os/hal/include/../ports/STM32/STM32F4xx/dcm
 595              		.file 61 "c:\\users\\loicc\\documents\\epfl\\microinfo\\eclipse_e-puck2\\tools\\gcc-arm-none-eabi-
 596              		.file 62 "../../lib/e-puck2_main-processor/src/msgbus/messagebus.h"
 597              		.file 63 "c:\\users\\loicc\\documents\\epfl\\microinfo\\eclipse_e-puck2\\tools\\gcc-arm-none-eabi-
 598              		.file 64 "../../lib/e-puck2_main-processor/src/parameter/parameter.h"
 599              		.file 65 "./main.h"
 600              		.file 66 "../../lib/e-puck2_main-processor/ChibiOS//os/rt/include/chthreads.h"
 601              		.file 67 "../../lib/e-puck2_main-processor/src/sensors/proximity.h"
 602              		.file 68 "../../lib/e-puck2_main-processor/src/sensors/VL53L0X/VL53L0X.h"